; Function Attrs: mustprogress nounwind uwtable
define dso_local void @_ZN5clang7CodeGen15CodeGenFunction27pushCallObjectDeleteCleanupEPKNS_12FunctionDeclEPN4llvm5ValueENS_8QualTypeE(ptr noundef nonnull align 8 dereferenceable(6488) %0, ptr noundef %1, ptr noundef %2, i64 %3) local_unnamed_addr #0 align 2 {
  %5 = getelementptr inbounds nuw i8, ptr %0, i64 2216
  %6 = tail call noundef ptr @_ZN5clang7CodeGen12EHScopeStack11pushCleanupENS0_11CleanupKindEm(ptr noundef nonnull align 8 dereferenceable(320) %5, i32 noundef 3, i64 noundef 32) #14
  store ptr getelementptr inbounds inrange(-16, 24) (i8, ptr @_ZTVN12_GLOBAL__N_116CallObjectDeleteE, i64 16), ptr %6, align 8
  %7 = getelementptr inbounds nuw i8, ptr %6, i64 8
  store ptr %2, ptr %7, align 8
  %8 = getelementptr inbounds nuw i8, ptr %6, i64 16
  store ptr %1, ptr %8, align 8
  %9 = getelementptr inbounds nuw i8, ptr %6, i64 24
  store i64 %3, ptr %9, align 8
  ret void
}